; Function Attrs: mustprogress uwtable
define hidden void @_ZNK19OpenColorIO_v2_5dev13GpuShaderText11float4ConstB5cxx11Ef(ptr dead_on_unwind noalias writable sret(%"class.std::__cxx11::basic_string") align 8 %0, ptr noundef nonnull readonly align 8 captures(none) dereferenceable(764) %1, float noundef %2) local_unnamed_addr #5 align 2 personality ptr @__gxx_personality_v0 {
  %4 = alloca %"class.std::__cxx11::basic_string", align 8
  call void @llvm.lifetime.start.p0(i64 32, ptr nonnull %4) #22
  %5 = load i32, ptr %1, align 8, !tbaa !60
  call void @_ZN19OpenColorIO_v2_5dev14getFloatStringIfEENSt7__cxx1112basic_stringIcSt11char_traitsIcESaIcEEET_NS_11GpuLanguageE(ptr dead_on_unwind nonnull writable sret(%"class.std::__cxx11::basic_string") align 8 %4, float noundef %2, i32 noundef %5)
  invoke void @_ZNK19OpenColorIO_v2_5dev13GpuShaderText11float4ConstERKNSt7__cxx1112basic_stringIcSt11char_traitsIcESaIcEEES8_S8_S8_(ptr dead_on_unwind writable sret(%"class.std::__cxx11::basic_string") align 8 %0, ptr noundef nonnull readonly align 8 dereferenceable(764) %1, ptr noundef nonnull readonly align 8 dereferenceable(32) %4, ptr noundef nonnull readonly align 8 dereferenceable(32) %4, ptr noundef nonnull readonly align 8 dereferenceable(32) %4, ptr noundef nonnull readonly align 8 dereferenceable(32) %4)
          to label %_ZNK19OpenColorIO_v2_5dev13GpuShaderText11float4ConstERKNSt7__cxx1112basic_stringIcSt11char_traitsIcESaIcEEE.exit unwind label %14

_ZNK19OpenColorIO_v2_5dev13GpuShaderText11float4ConstERKNSt7__cxx1112basic_stringIcSt11char_traitsIcESaIcEEE.exit: ; preds = %3
  %6 = load ptr, ptr %4, align 8, !tbaa !25
  %7 = getelementptr inbounds nuw i8, ptr %4, i64 16
  %8 = icmp eq ptr %6, %7
  br i1 %8, label %_ZNKSt7__cxx1112basic_stringIcSt11char_traitsIcESaIcEE11_M_is_localEv.exit.thread.i.i, label %_ZNKSt7__cxx1112basic_stringIcSt11char_traitsIcESaIcEE11_M_is_localEv.exit.i.i

_ZNKSt7__cxx1112basic_stringIcSt11char_traitsIcESaIcEE11_M_is_localEv.exit.thread.i.i: ; preds = %_ZNK19OpenColorIO_v2_5dev13GpuShaderText11float4ConstERKNSt7__cxx1112basic_stringIcSt11char_traitsIcESaIcEEE.exit
  %9 = getelementptr inbounds nuw i8, ptr %4, i64 8
  %10 = load i64, ptr %9, align 8, !tbaa !26
  %11 = icmp ult i64 %10, 16
  call void @llvm.assume(i1 %11)
  br label %_ZNSt7__cxx1112basic_stringIcSt11char_traitsIcESaIcEED2Ev.exit

_ZNKSt7__cxx1112basic_stringIcSt11char_traitsIcESaIcEE11_M_is_localEv.exit.i.i: ; preds = %_ZNK19OpenColorIO_v2_5dev13GpuShaderText11float4ConstERKNSt7__cxx1112basic_stringIcSt11char_traitsIcESaIcEEE.exit
  %12 = load i64, ptr %7, align 8, !tbaa !34
  %13 = add i64 %12, 1
  call void @_ZdlPvm(ptr noundef %6, i64 noundef %13) #23
  br label %_ZNSt7__cxx1112basic_stringIcSt11char_traitsIcESaIcEED2Ev.exit

_ZNSt7__cxx1112basic_stringIcSt11char_traitsIcESaIcEED2Ev.exit: ; preds = %_ZNKSt7__cxx1112basic_stringIcSt11char_traitsIcESaIcEE11_M_is_localEv.exit.thread.i.i, %_ZNKSt7__cxx1112basic_stringIcSt11char_traitsIcESaIcEE11_M_is_localEv.exit.i.i
  call void @llvm.lifetime.end.p0(i64 32, ptr nonnull %4) #22
  ret void

14:                                               ; preds = %3
  %15 = landingpad { ptr, i32 }
          cleanup
  %16 = load ptr, ptr %4, align 8, !tbaa !25
  %17 = getelementptr inbounds nuw i8, ptr %4, i64 16
  %18 = icmp eq ptr %16, %17
  br i1 %18, label %_ZNKSt7__cxx1112basic_stringIcSt11char_traitsIcESaIcEE11_M_is_localEv.exit.thread.i.i4, label %_ZNKSt7__cxx1112basic_stringIcSt11char_traitsIcESaIcEE11_M_is_localEv.exit.i.i3

_ZNKSt7__cxx1112basic_stringIcSt11char_traitsIcESaIcEE11_M_is_localEv.exit.thread.i.i4: ; preds = %14
  %19 = getelementptr inbounds nuw i8, ptr %4, i64 8
  %20 = load i64, ptr %19, align 8, !tbaa !26
  %21 = icmp ult i64 %20, 16
  call void @llvm.assume(i1 %21)
  br label %_ZNSt7__cxx1112basic_stringIcSt11char_traitsIcESaIcEED2Ev.exit5

_ZNKSt7__cxx1112basic_stringIcSt11char_traitsIcESaIcEE11_M_is_localEv.exit.i.i3: ; preds = %14
  %22 = load i64, ptr %17, align 8, !tbaa !34
  %23 = add i64 %22, 1
  call void @_ZdlPvm(ptr noundef %16, i64 noundef %23) #23
  br label %_ZNSt7__cxx1112basic_stringIcSt11char_traitsIcESaIcEED2Ev.exit5

_ZNSt7__cxx1112basic_stringIcSt11char_traitsIcESaIcEED2Ev.exit5: ; preds = %_ZNKSt7__cxx1112basic_stringIcSt11char_traitsIcESaIcEE11_M_is_localEv.exit.thread.i.i4, %_ZNKSt7__cxx1112basic_stringIcSt11char_traitsIcESaIcEE11_M_is_localEv.exit.i.i3
  call void @llvm.lifetime.end.p0(i64 32, ptr nonnull %4) #22
  resume { ptr, i32 } %15
}